target datalayout = "e-m:e-p270:32:32-p271:32:32-p272:64:64-i64:64-i128:128-f80:128-n8:16:32:64-S128"
target triple = "x86_64-pc-linux-gnu"

%struct.Curl_cftype = type { ptr, i32, i32, ptr, ptr, ptr, ptr, ptr, ptr, ptr, ptr, ptr, ptr, ptr, ptr }
%struct.Curl_sockaddr_ex = type { i32, i32, i32, i32, %union.anon }
%union.anon = type { %struct.Curl_sockaddr_storage }
%struct.Curl_sockaddr_storage = type { %union.anon.0 }
%union.anon.0 = type { %struct.sockaddr_storage }
%struct.sockaddr_storage = type { i16, [118 x i8], i64 }
%struct.Curl_easy = type { i32, i64, ptr, ptr, ptr, %struct.Curl_llist_element, %struct.Curl_llist_element, i32, i32, %struct.Curl_message, %struct.easy_pollset, %struct.Names, ptr, ptr, ptr, %struct.SingleRequest, %struct.UserDefined, ptr, ptr, %struct.Progress, %struct.UrlState, ptr, %struct.PureInfo, %struct.curl_tlssessioninfo }
%struct.Curl_llist_element = type { ptr, ptr, ptr }
%struct.Curl_message = type { %struct.Curl_llist_element, %struct.CURLMsg }
%struct.CURLMsg = type { i32, ptr, %union.anon.3 }
%union.anon.3 = type { ptr }
%struct.easy_pollset = type { [5 x i32], i32, [5 x i8] }
%struct.Names = type { ptr, i32 }
%struct.SingleRequest = type <{ i64, i64, i64, i64, i64, %struct.curltime, i32, i32, i32, i32, i64, i32, i32, %struct.curltime, i32, i32, ptr, i64, i64, ptr, ptr, i64, ptr, %union.anon.4, ptr, [2 x i8], i8, i16, [3 x i8] }>
%struct.curltime = type { i64, i32 }
%union.anon.4 = type { ptr }
%struct.UserDefined = type <{ ptr, ptr, ptr, ptr, ptr, ptr, i16, [6 x i8], i64, i64, i64, ptr, ptr, i64, i16, i16, [4 x i8], ptr, ptr, ptr, ptr, ptr, ptr, ptr, ptr, ptr, ptr, ptr, ptr, ptr, ptr, ptr, ptr, ptr, ptr, ptr, ptr, ptr, ptr, ptr, i32, i32, i32, i32, i64, i64, i64, i64, i64, i64, i64, i64, ptr, ptr, %struct.curl_mimepart, ptr, ptr, i64, i8, i8, i8, [5 x i8], %struct.ssl_config_data, %struct.ssl_config_data, ptr, i16, i8, i8, [4 x i8], %struct.ssl_general_config, i32, i32, i32, [4 x i8], ptr, ptr, i8, [7 x i8], i64, i8, i8, i8, i8, i32, ptr, ptr, ptr, i8, i8, [2 x i8], i32, [80 x ptr], [8 x ptr], i32, i32, i32, [4 x i8], ptr, ptr, ptr, ptr, ptr, i8, [3 x i8], i32, i32, [4 x i8], i64, %struct.Curl_data_priority, ptr, ptr, i64, ptr, ptr, ptr, ptr, ptr, i8, [3 x i8], i32, i8, i8, i56, [6 x i8] }>
%struct.curl_mimepart = type { ptr, ptr, i32, i32, ptr, ptr, ptr, ptr, ptr, ptr, ptr, ptr, ptr, ptr, ptr, i64, %struct.mime_state, ptr, %struct.mime_encoder_state, i64 }
%struct.mime_state = type { i32, ptr, i64 }
%struct.mime_encoder_state = type { i64, i64, i64, [256 x i8] }
%struct.ssl_config_data = type { %struct.ssl_primary_config, i64, ptr, ptr, ptr, ptr, ptr, ptr, ptr, i8 }
%struct.ssl_primary_config = type { ptr, ptr, ptr, ptr, ptr, ptr, ptr, ptr, ptr, ptr, ptr, ptr, i8, i32, i8, i8 }
%struct.ssl_general_config = type { i64, i32 }
%struct.Curl_data_priority = type { ptr, ptr, i32, i8 }
%struct.Progress = type { i64, i64, i64, i64, i64, i64, i32, i32, i64, i64, i64, i64, i64, i64, i64, i64, i64, i64, %struct.curltime, %struct.curltime, %struct.curltime, %struct.curltime, %struct.curltime, i64, %struct.curltime, i64, [6 x i64], [6 x %struct.curltime], i32, i8 }
%struct.UrlState = type { ptr, %struct.curltime, i64, i64, %struct.dynbuf, ptr, ptr, ptr, i64, ptr, i32, i32, i32, ptr, i64, [3 x %struct.tempbuf], i32, i32, ptr, i64, i32, ptr, %struct.digestdata, %struct.digestdata, %struct.auth, %struct.auth, %struct.Curl_async, ptr, %struct.curltime, %struct.Curl_tree, %struct.Curl_llist, [15 x %struct.time_node], ptr, i8, i64, ptr, i64, i64, %struct.Curl_data_priority, ptr, ptr, ptr, %struct.urlpieces, ptr, ptr, ptr, ptr, ptr, i64, %struct.dynbuf, %struct.Curl_llist, [2 x %struct.curl_header], ptr, i32, ptr, %struct.dynamically_allocated_data, i8, i8, i8, i8, i24 }
%struct.tempbuf = type { %struct.dynbuf, i32, i8 }
%struct.digestdata = type { ptr, ptr, ptr, ptr, ptr, ptr, i32, i8, i8 }
%struct.auth = type { i64, i64, i64, i8 }
%struct.Curl_async = type { ptr, ptr, ptr, ptr, i32, i32, i8 }
%struct.Curl_tree = type { ptr, ptr, ptr, ptr, %struct.curltime, ptr }
%struct.time_node = type { %struct.Curl_llist_element, %struct.curltime, i32 }
%struct.urlpieces = type { ptr, ptr, ptr, ptr, ptr, ptr, ptr, ptr }
%struct.dynbuf = type { ptr, i64, i64, i64 }
%struct.Curl_llist = type { ptr, ptr, ptr, i64 }
%struct.curl_header = type { ptr, ptr, i64, i64, i32, ptr }
%struct.dynamically_allocated_data = type { ptr, ptr, ptr, ptr, ptr, ptr, ptr, ptr, ptr, ptr, ptr, ptr, ptr, ptr }
%struct.PureInfo = type { i32, i32, i32, i64, i64, i64, i64, i64, ptr, ptr, i64, i32, [46 x i8], i32, i32, [46 x i8], i32, ptr, i32, %struct.curl_certinfo, i32, i8 }
%struct.curl_certinfo = type { i32, ptr }
%struct.curl_tlssessioninfo = type { i32, ptr }
%struct.connectdata = type { %struct.Curl_llist_element, ptr, ptr, i64, ptr, ptr, %struct.hostname, ptr, ptr, %struct.hostname, %struct.proxy_info, %struct.proxy_info, [46 x i8], ptr, ptr, ptr, ptr, ptr, %struct.curltime, %struct.curltime, %struct.curltime, [2 x i32], [2 x ptr], [2 x ptr], [2 x ptr], %struct.ssl_primary_config, %struct.ssl_primary_config, %struct.ConnectBits, ptr, ptr, %struct.curltime, i32, i32, %struct.Curl_llist, ptr, ptr, i32, i32, %struct.ntlmdata, %struct.ntlmdata, %union.anon.2, ptr, ptr, i16, i32, i32, i32, i32, i32, i16, i16, i8, i8, i8, i8, i8, i8, i8 }
%struct.hostname = type { ptr, ptr, ptr, ptr }
%struct.proxy_info = type { %struct.hostname, i32, i8, ptr, ptr }
%struct.ConnectBits = type { i32 }
%struct.ntlmdata = type { i32, [8 x i8], i32, ptr }
%union.anon.2 = type { %struct.ftp_conn }
%struct.ftp_conn = type { %struct.pingpong, ptr, ptr, ptr, ptr, ptr, ptr, ptr, i8, i64, ptr, i64, i32, i32, i32, i32, i32, i16, i8, i8, i8, i8, i8 }
%struct.pingpong = type { i64, i8, ptr, i64, i64, %struct.curltime, i64, %struct.dynbuf, %struct.dynbuf, i64, i64, ptr, ptr }
%struct.Curl_cfilter = type { ptr, ptr, ptr, ptr, i32, i8 }
%struct.cf_socket_ctx = type { i32, %struct.Curl_sockaddr_ex, i32, %struct.bufq, [46 x i8], i32, [46 x i8], i32, %struct.curltime, %struct.curltime, %struct.curltime, i32, i8 }
%struct.bufq = type { ptr, ptr, ptr, ptr, i64, i64, i64, i32 }

@.str.35 = private unnamed_addr constant [17 x i8] c"Send failure: %s\00", align 1
@.str.36 = private unnamed_addr constant [28 x i8] c"send(len=%zu) -> %d, err=%d\00", align 1

; Function Attrs: nounwind uwtable
define internal i64 @cf_socket_send(ptr noundef %0, ptr noundef %1, ptr noundef %2, i64 noundef %3, ptr noundef %4) #0 {
  %6 = alloca ptr, align 8
  %7 = alloca ptr, align 8
  %8 = alloca ptr, align 8
  %9 = alloca i64, align 8
  %10 = alloca ptr, align 8
  %11 = alloca ptr, align 8
  %12 = alloca i32, align 4
  %13 = alloca i64, align 8
  %14 = alloca i64, align 8
  %15 = alloca i32, align 4
  %16 = alloca [256 x i8], align 16
  store ptr %0, ptr %6, align 8
  store ptr %1, ptr %7, align 8
  store ptr %2, ptr %8, align 8
  store i64 %3, ptr %9, align 8
  store ptr %4, ptr %10, align 8
  %17 = load ptr, ptr %6, align 8
  %18 = getelementptr inbounds %struct.Curl_cfilter, ptr %17, i32 0, i32 2
  %19 = load ptr, ptr %18, align 8
  store ptr %19, ptr %11, align 8
  %20 = load i64, ptr %9, align 8
  store i64 %20, ptr %14, align 8
  %21 = load ptr, ptr %10, align 8
  store i32 0, ptr %21, align 4
  %22 = load ptr, ptr %6, align 8
  %23 = getelementptr inbounds %struct.Curl_cfilter, ptr %22, i32 0, i32 3
  %24 = load ptr, ptr %23, align 8
  %25 = getelementptr inbounds %struct.connectdata, ptr %24, i32 0, i32 21
  %26 = load ptr, ptr %6, align 8
  %27 = getelementptr inbounds %struct.Curl_cfilter, ptr %26, i32 0, i32 4
  %28 = load i32, ptr %27, align 8
  %29 = sext i32 %28 to i64
  %30 = getelementptr inbounds [2 x i32], ptr %25, i64 0, i64 %29
  %31 = load i32, ptr %30, align 4
  store i32 %31, ptr %12, align 4
  %32 = load ptr, ptr %11, align 8
  %33 = getelementptr inbounds %struct.cf_socket_ctx, ptr %32, i32 0, i32 2
  %34 = load i32, ptr %33, align 8
  %35 = load ptr, ptr %6, align 8
  %36 = getelementptr inbounds %struct.Curl_cfilter, ptr %35, i32 0, i32 3
  %37 = load ptr, ptr %36, align 8
  %38 = getelementptr inbounds %struct.connectdata, ptr %37, i32 0, i32 21
  %39 = load ptr, ptr %6, align 8
  %40 = getelementptr inbounds %struct.Curl_cfilter, ptr %39, i32 0, i32 4
  %41 = load i32, ptr %40, align 8
  %42 = sext i32 %41 to i64
  %43 = getelementptr inbounds [2 x i32], ptr %38, i64 0, i64 %42
  store i32 %34, ptr %43, align 4
  %44 = load ptr, ptr %11, align 8
  %45 = getelementptr inbounds %struct.cf_socket_ctx, ptr %44, i32 0, i32 2
  %46 = load i32, ptr %45, align 8
  %47 = load ptr, ptr %8, align 8
  %48 = load i64, ptr %9, align 8
  %49 = call i64 @send(i32 noundef %46, ptr noundef %47, i64 noundef %48, i32 noundef 16384)
  store i64 %49, ptr %13, align 8
  %50 = load i64, ptr %13, align 8
  %51 = icmp eq i64 -1, %50
  br i1 %51, label %52, label %79

52:                                               ; preds = %5
  %53 = call ptr @__errno_location() #8
  %54 = load i32, ptr %53, align 4
  store i32 %54, ptr %15, align 4
  %55 = load i32, ptr %15, align 4
  %56 = icmp eq i32 11, %55
  br i1 %56, label %66, label %57

57:                                               ; preds = %52
  %58 = load i32, ptr %15, align 4
  %59 = icmp eq i32 11, %58
  br i1 %59, label %66, label %60

60:                                               ; preds = %57
  %61 = load i32, ptr %15, align 4
  %62 = icmp eq i32 4, %61
  br i1 %62, label %66, label %63

63:                                               ; preds = %60
  %64 = load i32, ptr %15, align 4
  %65 = icmp eq i32 115, %64
  br i1 %65, label %66, label %68

66:                                               ; preds = %63, %60, %57, %52
  %67 = load ptr, ptr %10, align 8
  store i32 81, ptr %67, align 4
  br label %78

68:                                               ; preds = %63
  %69 = load ptr, ptr %7, align 8
  %70 = load i32, ptr %15, align 4
  %71 = getelementptr inbounds [256 x i8], ptr %16, i64 0, i64 0
  %72 = call ptr @Curl_strerror(i32 noundef %70, ptr noundef %71, i64 noundef 256)
  call void (ptr, ptr, ...) @Curl_failf(ptr noundef %69, ptr noundef @.str.35, ptr noundef %72)
  %73 = load i32, ptr %15, align 4
  %74 = load ptr, ptr %7, align 8
  %75 = getelementptr inbounds %struct.Curl_easy, ptr %74, i32 0, i32 20
  %76 = getelementptr inbounds %struct.UrlState, ptr %75, i32 0, i32 17
  store i32 %73, ptr %76, align 4
  %77 = load ptr, ptr %10, align 8
  store i32 55, ptr %77, align 4
  br label %78

78:                                               ; preds = %68, %66
  br label %79

79:                                               ; preds = %78, %5
  br label %80

80:                                               ; preds = %79
  %81 = load ptr, ptr %7, align 8
  %82 = icmp ne ptr %81, null
  br i1 %82, label %83, label %110

83:                                               ; preds = %80
  %84 = load ptr, ptr %7, align 8
  %85 = getelementptr inbounds %struct.Curl_easy, ptr %84, i32 0, i32 16
  %86 = getelementptr inbounds %struct.UserDefined, ptr %85, i32 0, i32 122
  %87 = load i64, ptr %86, align 2
  %88 = lshr i64 %87, 28
  %89 = and i64 %88, 1
  %90 = trunc i64 %89 to i32
  %91 = icmp ne i32 %90, 0
  br i1 %91, label %92, label %110

92:                                               ; preds = %83
  %93 = load ptr, ptr %6, align 8
  %94 = icmp ne ptr %93, null
  br i1 %94, label %95, label %110

95:                                               ; preds = %92
  %96 = load ptr, ptr %6, align 8
  %97 = getelementptr inbounds %struct.Curl_cfilter, ptr %96, i32 0, i32 0
  %98 = load ptr, ptr %97, align 8
  %99 = getelementptr inbounds %struct.Curl_cftype, ptr %98, i32 0, i32 2
  %100 = load i32, ptr %99, align 4
  %101 = icmp sge i32 %100, 1
  br i1 %101, label %102, label %110

102:                                              ; preds = %95
  %103 = load ptr, ptr %7, align 8
  %104 = load ptr, ptr %6, align 8
  %105 = load i64, ptr %14, align 8
  %106 = load i64, ptr %13, align 8
  %107 = trunc i64 %106 to i32
  %108 = load ptr, ptr %10, align 8
  %109 = load i32, ptr %108, align 4
  call void (ptr, ptr, ptr, ...) @Curl_trc_cf_infof(ptr noundef %103, ptr noundef %104, ptr noundef @.str.36, i64 noundef %105, i32 noundef %107, i32 noundef %109)
  br label %110

110:                                              ; preds = %102, %95, %92, %83, %80
  br label %111

111:                                              ; preds = %110
  %112 = load i32, ptr %12, align 4
  %113 = load ptr, ptr %6, align 8
  %114 = getelementptr inbounds %struct.Curl_cfilter, ptr %113, i32 0, i32 3
  %115 = load ptr, ptr %114, align 8
  %116 = getelementptr inbounds %struct.connectdata, ptr %115, i32 0, i32 21
  %117 = load ptr, ptr %6, align 8
  %118 = getelementptr inbounds %struct.Curl_cfilter, ptr %117, i32 0, i32 4
  %119 = load i32, ptr %118, align 8
  %120 = sext i32 %119 to i64
  %121 = getelementptr inbounds [2 x i32], ptr %116, i64 0, i64 %120
  store i32 %112, ptr %121, align 4
  %122 = load i64, ptr %13, align 8
  ret i64 %122
}