; Function Attrs: nounwind uwtable
define internal i64 @cf_socket_send(ptr noundef %0, ptr noundef %1, ptr noundef %2, i64 noundef %3, ptr noundef captures(none) initializes((0, 4)) %4) #2 {
  %6 = alloca [256 x i8], align 16
  %7 = getelementptr inbounds nuw i8, ptr %0, i64 16
  %8 = load ptr, ptr %7, align 8
  store i32 0, ptr %4, align 4
  %9 = getelementptr inbounds nuw i8, ptr %0, i64 24
  %10 = load ptr, ptr %9, align 8
  %11 = getelementptr inbounds nuw i8, ptr %10, i64 392
  %12 = getelementptr inbounds nuw i8, ptr %0, i64 32
  %13 = load i32, ptr %12, align 8
  %14 = sext i32 %13 to i64
  %15 = getelementptr inbounds [2 x i32], ptr %11, i64 0, i64 %14
  %16 = load i32, ptr %15, align 4
  %17 = getelementptr inbounds nuw i8, ptr %8, i64 152
  %18 = load i32, ptr %17, align 8
  store i32 %18, ptr %15, align 4
  %19 = tail call i64 @send(i32 noundef %18, ptr noundef %2, i64 noundef %3, i32 noundef 16384) #13
  %20 = icmp eq i64 %19, -1
  br i1 %20, label %21, label %27

21:                                               ; preds = %5
  %22 = tail call ptr @__errno_location() #14
  %23 = load i32, ptr %22, align 4
  switch i32 %23, label %.thread [
    i32 115, label %24
    i32 11, label %24
    i32 4, label %24
  ]

24:                                               ; preds = %21, %21, %21
  store i32 81, ptr %4, align 4
  br label %27

.thread:                                          ; preds = %21
  %25 = call ptr @Curl_strerror(i32 noundef %23, ptr noundef nonnull %6, i64 noundef 256) #13
  call void (ptr, ptr, ...) @Curl_failf(ptr noundef %1, ptr noundef nonnull @.str.35, ptr noundef %25) #13
  %26 = getelementptr inbounds nuw i8, ptr %1, i64 3340
  store i32 %23, ptr %26, align 4
  store i32 55, ptr %4, align 4
  br label %28

27:                                               ; preds = %5, %24
  %.not = icmp eq ptr %1, null
  br i1 %.not, label %40, label %28

28:                                               ; preds = %.thread, %27
  %29 = getelementptr inbounds nuw i8, ptr %1, i64 2642
  %30 = load i64, ptr %29, align 2
  %31 = and i64 %30, 268435456
  %.not44 = icmp eq i64 %31, 0
  br i1 %.not44, label %40, label %32

32:                                               ; preds = %28
  %33 = load ptr, ptr %0, align 8
  %34 = getelementptr inbounds nuw i8, ptr %33, i64 12
  %35 = load i32, ptr %34, align 4
  %36 = icmp sgt i32 %35, 0
  br i1 %36, label %37, label %40

37:                                               ; preds = %32
  %38 = trunc i64 %19 to i32
  %39 = load i32, ptr %4, align 4
  call void (ptr, ptr, ptr, ...) @Curl_trc_cf_infof(ptr noundef nonnull %1, ptr noundef nonnull %0, ptr noundef nonnull @.str.36, i64 noundef %3, i32 noundef %38, i32 noundef %39) #13
  br label %40

40:                                               ; preds = %27, %28, %32, %37
  %41 = load ptr, ptr %9, align 8
  %42 = getelementptr inbounds nuw i8, ptr %41, i64 392
  %43 = load i32, ptr %12, align 8
  %44 = sext i32 %43 to i64
  %45 = getelementptr inbounds [2 x i32], ptr %42, i64 0, i64 %44
  store i32 %16, ptr %45, align 4
  ret i64 %19
}